target datalayout = "e-m:e-p270:32:32-p271:32:32-p272:64:64-i64:64-i128:128-f80:128-n8:16:32:64-S128"
target triple = "x86_64-pc-linux-gnu"

%"class.pkpy::unique_ptr_128" = type { ptr }
%"struct.pkpy::Expr.base" = type <{ ptr, i32 }>
%"struct.pkpy::SequenceExpr" = type { %"struct.pkpy::Expr.base", %"class.pkpy::small_vector.74" }
%"class.pkpy::small_vector.74" = type { [32 x i8], ptr, ptr, ptr }

; Function Attrs: mustprogress nounwind uwtable
define linkonce_odr noundef ptr @_ZNK4pkpy14unique_ptr_128INS_4ExprEEptEv(ptr noundef nonnull align 8 dereferenceable(8) %0) #5 comdat align 2 {
  %2 = alloca ptr, align 8
  store ptr %0, ptr %2, align 8
  %3 = load ptr, ptr %2, align 8
  %4 = getelementptr inbounds %"class.pkpy::unique_ptr_128", ptr %3, i32 0, i32 0
  %5 = load ptr, ptr %4, align 8
  ret ptr %5
}

; Function Attrs: mustprogress nounwind uwtable
define linkonce_odr noundef ptr @_ZN4pkpy12small_vectorINS_14unique_ptr_128INS_4ExprEEELm4EE3endEv(ptr noundef nonnull align 8 dereferenceable(56) %0) #5 comdat align 2 {
  %2 = alloca ptr, align 8
  store ptr %0, ptr %2, align 8
  %3 = load ptr, ptr %2, align 8
  %4 = getelementptr inbounds %"class.pkpy::small_vector.74", ptr %3, i32 0, i32 2
  %5 = load ptr, ptr %4, align 8
  ret ptr %5
}

; Function Attrs: mustprogress nounwind uwtable
define linkonce_odr noundef ptr @_ZN4pkpy12small_vectorINS_14unique_ptr_128INS_4ExprEEELm4EE5beginEv(ptr noundef nonnull align 8 dereferenceable(56) %0) #5 comdat align 2 {
  %2 = alloca ptr, align 8
  store ptr %0, ptr %2, align 8
  %3 = load ptr, ptr %2, align 8
  %4 = getelementptr inbounds %"class.pkpy::small_vector.74", ptr %3, i32 0, i32 1
  %5 = load ptr, ptr %4, align 8
  ret ptr %5
}

; Function Attrs: mustprogress uwtable
define noundef zeroext i1 @_ZN4pkpy9TupleExpr8emit_delEPNS_15CodeEmitContextE(ptr noundef nonnull align 8 dereferenceable(72) %0, ptr noundef %1) unnamed_addr #4 align 2 {
  %3 = alloca i1, align 1
  %4 = alloca ptr, align 8
  %5 = alloca ptr, align 8
  %6 = alloca ptr, align 8
  %7 = alloca ptr, align 8
  %8 = alloca ptr, align 8
  %9 = alloca ptr, align 8
  %10 = alloca i8, align 1
  store ptr %0, ptr %4, align 8
  store ptr %1, ptr %5, align 8
  %11 = load ptr, ptr %4, align 8
  %12 = getelementptr inbounds %"struct.pkpy::SequenceExpr", ptr %11, i32 0, i32 1
  store ptr %12, ptr %6, align 8
  %13 = load ptr, ptr %6, align 8
  %14 = call noundef ptr @_ZN4pkpy12small_vectorINS_14unique_ptr_128INS_4ExprEEELm4EE5beginEv(ptr noundef nonnull align 8 dereferenceable(56) %13)
  store ptr %14, ptr %7, align 8
  %15 = load ptr, ptr %6, align 8
  %16 = call noundef ptr @_ZN4pkpy12small_vectorINS_14unique_ptr_128INS_4ExprEEELm4EE3endEv(ptr noundef nonnull align 8 dereferenceable(56) %15)
  store ptr %16, ptr %8, align 8
  br label %17

17:                                               ; preds = %35, %2
  %18 = load ptr, ptr %7, align 8
  %19 = load ptr, ptr %8, align 8
  %20 = icmp ne ptr %18, %19
  br i1 %20, label %21, label %38

21:                                               ; preds = %17
  %22 = load ptr, ptr %7, align 8
  store ptr %22, ptr %9, align 8
  %23 = load ptr, ptr %9, align 8
  %24 = call noundef ptr @_ZNK4pkpy14unique_ptr_128INS_4ExprEEptEv(ptr noundef nonnull align 8 dereferenceable(8) %23)
  %25 = load ptr, ptr %5, align 8
  %26 = load ptr, ptr %24, align 8
  %27 = getelementptr inbounds ptr, ptr %26, i64 10
  %28 = load ptr, ptr %27, align 8
  %29 = call noundef zeroext i1 %28(ptr noundef nonnull align 8 dereferenceable(12) %24, ptr noundef %25)
  %30 = zext i1 %29 to i8
  store i8 %30, ptr %10, align 1
  %31 = load i8, ptr %10, align 1
  %32 = trunc i8 %31 to i1
  br i1 %32, label %34, label %33

33:                                               ; preds = %21
  store i1 false, ptr %3, align 1
  br label %39

34:                                               ; preds = %21
  br label %35

35:                                               ; preds = %34
  %36 = load ptr, ptr %7, align 8
  %37 = getelementptr inbounds %"class.pkpy::unique_ptr_128", ptr %36, i32 1
  store ptr %37, ptr %7, align 8
  br label %17

38:                                               ; preds = %17
  store i1 true, ptr %3, align 1
  br label %39

39:                                               ; preds = %38, %33
  %40 = load i1, ptr %3, align 1
  ret i1 %40
}