; Function Attrs: mustprogress uwtable
define noundef zeroext i1 @_ZN4pkpy9TupleExpr8emit_delEPNS_15CodeEmitContextE(ptr noundef nonnull readonly align 8 captures(none) dereferenceable(72) %0, ptr noundef %1) unnamed_addr #5 align 2 {
  %3 = getelementptr inbounds nuw i8, ptr %0, i64 48
  %4 = load ptr, ptr %3, align 8
  %5 = getelementptr inbounds nuw i8, ptr %0, i64 56
  %6 = load ptr, ptr %5, align 8
  %.not11 = icmp eq ptr %4, %6
  br i1 %.not11, label %._crit_edge, label %.lr.ph

.lr.ph:                                           ; preds = %2, %.lr.ph
  %.01012 = phi ptr [ %12, %.lr.ph ], [ %4, %2 ]
  %7 = load ptr, ptr %.01012, align 8
  %8 = load ptr, ptr %7, align 8
  %9 = getelementptr inbounds nuw i8, ptr %8, i64 80
  %10 = load ptr, ptr %9, align 8
  %11 = tail call noundef zeroext i1 %10(ptr noundef nonnull align 8 dereferenceable(12) %7, ptr noundef %1)
  %12 = getelementptr inbounds nuw i8, ptr %.01012, i64 8
  %.not = icmp ne ptr %12, %6
  %or.cond.not = select i1 %11, i1 %.not, i1 false
  br i1 %or.cond.not, label %.lr.ph, label %._crit_edge

._crit_edge:                                      ; preds = %.lr.ph, %2
  %.not.lcssa = phi i1 [ true, %2 ], [ %11, %.lr.ph ]
  ret i1 %.not.lcssa
}